target datalayout = "e-m:e-p270:32:32-p271:32:32-p272:64:64-i64:64-i128:128-f80:128-n8:16:32:64-S128"
target triple = "x86_64-pc-linux-gnu"

%struct.PJconsts = type { ptr, ptr, ptr, ptr, ptr, ptr, ptr, ptr, ptr, ptr, ptr, ptr, i32, ptr, ptr, ptr, ptr, ptr, ptr, ptr, ptr, double, double, double, double, double, double, double, double, double, double, double, double, double, double, double, double, double, double, double, double, double, double, i32, i32, i32, i32, i32, i32, i32, i32, i32, i32, i32, ptr, ptr, ptr, ptr, ptr, ptr, double, double, double, double, double, double, double, double, double, double, double, i32, [7 x double], i32, ptr, ptr, double, double, i32, [4 x i8], %"class.std::shared_ptr", i8, double, i8, %"class.std::__cxx11::basic_string", %"class.std::__cxx11::basic_string", %"class.std::__cxx11::basic_string", i8, %"class.std::vector", i32, %"class.std::vector.3", i32, i8, i8, i8, ptr }
%"class.std::shared_ptr" = type { %"class.std::__shared_ptr" }
%"class.std::__shared_ptr" = type { ptr, %"class.std::__shared_count" }
%"class.std::__shared_count" = type { ptr }
%"class.std::__cxx11::basic_string" = type { %"struct.std::__cxx11::basic_string<char>::_Alloc_hider", i64, %union.anon }
%"struct.std::__cxx11::basic_string<char>::_Alloc_hider" = type { ptr }
%union.anon = type { i64, [8 x i8] }
%"class.std::vector" = type { %"struct.std::_Vector_base" }
%"struct.std::_Vector_base" = type { %"struct.std::_Vector_base<osgeo::proj::operation::GridDescription, std::allocator<osgeo::proj::operation::GridDescription>>::_Vector_impl" }
%"struct.std::_Vector_base<osgeo::proj::operation::GridDescription, std::allocator<osgeo::proj::operation::GridDescription>>::_Vector_impl" = type { %"struct.std::_Vector_base<osgeo::proj::operation::GridDescription, std::allocator<osgeo::proj::operation::GridDescription>>::_Vector_impl_data" }
%"struct.std::_Vector_base<osgeo::proj::operation::GridDescription, std::allocator<osgeo::proj::operation::GridDescription>>::_Vector_impl_data" = type { ptr, ptr, ptr }
%"class.std::vector.3" = type { %"struct.std::_Vector_base.4" }
%"struct.std::_Vector_base.4" = type { %"struct.std::_Vector_base<PJCoordOperation, std::allocator<PJCoordOperation>>::_Vector_impl" }
%"struct.std::_Vector_base<PJCoordOperation, std::allocator<PJCoordOperation>>::_Vector_impl" = type { %"struct.std::_Vector_base<PJCoordOperation, std::allocator<PJCoordOperation>>::_Vector_impl_data" }
%"struct.std::_Vector_base<PJCoordOperation, std::allocator<PJCoordOperation>>::_Vector_impl_data" = type { ptr, ptr, ptr }
%"struct.(anonymous namespace)::pj_opaque_helmert" = type { %struct.PJ_XYZ, %struct.PJ_XYZ, %struct.PJ_XYZ, %struct.PJ_XYZ, %struct.PJ_OPK, %struct.PJ_OPK, %struct.PJ_OPK, double, double, double, double, double, double, [3 x [3 x double]], double, double, i32, i32, i32, i32 }
%struct.PJ_XYZ = type { double, double, double }
%struct.PJ_OPK = type { double, double, double }

@.str.66 = private unnamed_addr constant [65 x i8] c"Transformation parameters for observation t_obs=%g (t_epoch=%g):\00", align 1
@.str.67 = private unnamed_addr constant [6 x i8] c"x: %g\00", align 1
@.str.68 = private unnamed_addr constant [6 x i8] c"y: %g\00", align 1
@.str.69 = private unnamed_addr constant [6 x i8] c"z: %g\00", align 1
@.str.70 = private unnamed_addr constant [6 x i8] c"s: %g\00", align 1
@.str.71 = private unnamed_addr constant [7 x i8] c"rx: %g\00", align 1
@.str.72 = private unnamed_addr constant [7 x i8] c"ry: %g\00", align 1
@.str.73 = private unnamed_addr constant [7 x i8] c"rz: %g\00", align 1
@.str.74 = private unnamed_addr constant [10 x i8] c"theta: %g\00", align 1

; Function Attrs: mustprogress uwtable
define internal void @_ZL17update_parametersP8PJconsts(ptr noundef %0) #0 {
  %2 = alloca ptr, align 8
  %3 = alloca ptr, align 8
  %4 = alloca double, align 8
  store ptr %0, ptr %2, align 8, !tbaa !3
  call void @llvm.lifetime.start.p0(i64 8, ptr %3) #10
  %5 = load ptr, ptr %2, align 8, !tbaa !3
  %6 = getelementptr inbounds nuw %struct.PJconsts, ptr %5, i32 0, i32 11
  %7 = load ptr, ptr %6, align 8, !tbaa !48
  store ptr %7, ptr %3, align 8, !tbaa !49
  call void @llvm.lifetime.start.p0(i64 8, ptr %4) #10
  %8 = load ptr, ptr %3, align 8, !tbaa !49
  %9 = getelementptr inbounds nuw %"struct.(anonymous namespace)::pj_opaque_helmert", ptr %8, i32 0, i32 15
  %10 = load double, ptr %9, align 8, !tbaa !91
  %11 = load ptr, ptr %3, align 8, !tbaa !49
  %12 = getelementptr inbounds nuw %"struct.(anonymous namespace)::pj_opaque_helmert", ptr %11, i32 0, i32 14
  %13 = load double, ptr %12, align 8, !tbaa !74
  %14 = fsub double %10, %13
  store double %14, ptr %4, align 8, !tbaa !53
  %15 = load ptr, ptr %3, align 8, !tbaa !49
  %16 = getelementptr inbounds nuw %"struct.(anonymous namespace)::pj_opaque_helmert", ptr %15, i32 0, i32 1
  %17 = getelementptr inbounds nuw %struct.PJ_XYZ, ptr %16, i32 0, i32 0
  %18 = load double, ptr %17, align 8, !tbaa !54
  %19 = load ptr, ptr %3, align 8, !tbaa !49
  %20 = getelementptr inbounds nuw %"struct.(anonymous namespace)::pj_opaque_helmert", ptr %19, i32 0, i32 2
  %21 = getelementptr inbounds nuw %struct.PJ_XYZ, ptr %20, i32 0, i32 0
  %22 = load double, ptr %21, align 8, !tbaa !66
  %23 = load double, ptr %4, align 8, !tbaa !53
  %24 = call double @llvm.fmuladd.f64(double %22, double %23, double %18)
  %25 = load ptr, ptr %3, align 8, !tbaa !49
  %26 = getelementptr inbounds nuw %"struct.(anonymous namespace)::pj_opaque_helmert", ptr %25, i32 0, i32 0
  %27 = getelementptr inbounds nuw %struct.PJ_XYZ, ptr %26, i32 0, i32 0
  store double %24, ptr %27, align 8, !tbaa !82
  %28 = load ptr, ptr %3, align 8, !tbaa !49
  %29 = getelementptr inbounds nuw %"struct.(anonymous namespace)::pj_opaque_helmert", ptr %28, i32 0, i32 1
  %30 = getelementptr inbounds nuw %struct.PJ_XYZ, ptr %29, i32 0, i32 1
  %31 = load double, ptr %30, align 8, !tbaa !58
  %32 = load ptr, ptr %3, align 8, !tbaa !49
  %33 = getelementptr inbounds nuw %"struct.(anonymous namespace)::pj_opaque_helmert", ptr %32, i32 0, i32 2
  %34 = getelementptr inbounds nuw %struct.PJ_XYZ, ptr %33, i32 0, i32 1
  %35 = load double, ptr %34, align 8, !tbaa !67
  %36 = load double, ptr %4, align 8, !tbaa !53
  %37 = call double @llvm.fmuladd.f64(double %35, double %36, double %31)
  %38 = load ptr, ptr %3, align 8, !tbaa !49
  %39 = getelementptr inbounds nuw %"struct.(anonymous namespace)::pj_opaque_helmert", ptr %38, i32 0, i32 0
  %40 = getelementptr inbounds nuw %struct.PJ_XYZ, ptr %39, i32 0, i32 1
  store double %37, ptr %40, align 8, !tbaa !83
  %41 = load ptr, ptr %3, align 8, !tbaa !49
  %42 = getelementptr inbounds nuw %"struct.(anonymous namespace)::pj_opaque_helmert", ptr %41, i32 0, i32 1
  %43 = getelementptr inbounds nuw %struct.PJ_XYZ, ptr %42, i32 0, i32 2
  %44 = load double, ptr %43, align 8, !tbaa !59
  %45 = load ptr, ptr %3, align 8, !tbaa !49
  %46 = getelementptr inbounds nuw %"struct.(anonymous namespace)::pj_opaque_helmert", ptr %45, i32 0, i32 2
  %47 = getelementptr inbounds nuw %struct.PJ_XYZ, ptr %46, i32 0, i32 2
  %48 = load double, ptr %47, align 8, !tbaa !68
  %49 = load double, ptr %4, align 8, !tbaa !53
  %50 = call double @llvm.fmuladd.f64(double %48, double %49, double %44)
  %51 = load ptr, ptr %3, align 8, !tbaa !49
  %52 = getelementptr inbounds nuw %"struct.(anonymous namespace)::pj_opaque_helmert", ptr %51, i32 0, i32 0
  %53 = getelementptr inbounds nuw %struct.PJ_XYZ, ptr %52, i32 0, i32 2
  store double %50, ptr %53, align 8, !tbaa !84
  %54 = load ptr, ptr %3, align 8, !tbaa !49
  %55 = getelementptr inbounds nuw %"struct.(anonymous namespace)::pj_opaque_helmert", ptr %54, i32 0, i32 5
  %56 = getelementptr inbounds nuw %struct.PJ_OPK, ptr %55, i32 0, i32 0
  %57 = load double, ptr %56, align 8, !tbaa !60
  %58 = load ptr, ptr %3, align 8, !tbaa !49
  %59 = getelementptr inbounds nuw %"struct.(anonymous namespace)::pj_opaque_helmert", ptr %58, i32 0, i32 6
  %60 = getelementptr inbounds nuw %struct.PJ_OPK, ptr %59, i32 0, i32 0
  %61 = load double, ptr %60, align 8, !tbaa !69
  %62 = load double, ptr %4, align 8, !tbaa !53
  %63 = call double @llvm.fmuladd.f64(double %61, double %62, double %57)
  %64 = load ptr, ptr %3, align 8, !tbaa !49
  %65 = getelementptr inbounds nuw %"struct.(anonymous namespace)::pj_opaque_helmert", ptr %64, i32 0, i32 4
  %66 = getelementptr inbounds nuw %struct.PJ_OPK, ptr %65, i32 0, i32 0
  store double %63, ptr %66, align 8, !tbaa !78
  %67 = load ptr, ptr %3, align 8, !tbaa !49
  %68 = getelementptr inbounds nuw %"struct.(anonymous namespace)::pj_opaque_helmert", ptr %67, i32 0, i32 5
  %69 = getelementptr inbounds nuw %struct.PJ_OPK, ptr %68, i32 0, i32 1
  %70 = load double, ptr %69, align 8, !tbaa !61
  %71 = load ptr, ptr %3, align 8, !tbaa !49
  %72 = getelementptr inbounds nuw %"struct.(anonymous namespace)::pj_opaque_helmert", ptr %71, i32 0, i32 6
  %73 = getelementptr inbounds nuw %struct.PJ_OPK, ptr %72, i32 0, i32 1
  %74 = load double, ptr %73, align 8, !tbaa !70
  %75 = load double, ptr %4, align 8, !tbaa !53
  %76 = call double @llvm.fmuladd.f64(double %74, double %75, double %70)
  %77 = load ptr, ptr %3, align 8, !tbaa !49
  %78 = getelementptr inbounds nuw %"struct.(anonymous namespace)::pj_opaque_helmert", ptr %77, i32 0, i32 4
  %79 = getelementptr inbounds nuw %struct.PJ_OPK, ptr %78, i32 0, i32 1
  store double %76, ptr %79, align 8, !tbaa !79
  %80 = load ptr, ptr %3, align 8, !tbaa !49
  %81 = getelementptr inbounds nuw %"struct.(anonymous namespace)::pj_opaque_helmert", ptr %80, i32 0, i32 5
  %82 = getelementptr inbounds nuw %struct.PJ_OPK, ptr %81, i32 0, i32 2
  %83 = load double, ptr %82, align 8, !tbaa !62
  %84 = load ptr, ptr %3, align 8, !tbaa !49
  %85 = getelementptr inbounds nuw %"struct.(anonymous namespace)::pj_opaque_helmert", ptr %84, i32 0, i32 6
  %86 = getelementptr inbounds nuw %struct.PJ_OPK, ptr %85, i32 0, i32 2
  %87 = load double, ptr %86, align 8, !tbaa !71
  %88 = load double, ptr %4, align 8, !tbaa !53
  %89 = call double @llvm.fmuladd.f64(double %87, double %88, double %83)
  %90 = load ptr, ptr %3, align 8, !tbaa !49
  %91 = getelementptr inbounds nuw %"struct.(anonymous namespace)::pj_opaque_helmert", ptr %90, i32 0, i32 4
  %92 = getelementptr inbounds nuw %struct.PJ_OPK, ptr %91, i32 0, i32 2
  store double %89, ptr %92, align 8, !tbaa !80
  %93 = load ptr, ptr %3, align 8, !tbaa !49
  %94 = getelementptr inbounds nuw %"struct.(anonymous namespace)::pj_opaque_helmert", ptr %93, i32 0, i32 8
  %95 = load double, ptr %94, align 8, !tbaa !63
  %96 = load ptr, ptr %3, align 8, !tbaa !49
  %97 = getelementptr inbounds nuw %"struct.(anonymous namespace)::pj_opaque_helmert", ptr %96, i32 0, i32 9
  %98 = load double, ptr %97, align 8, !tbaa !73
  %99 = load double, ptr %4, align 8, !tbaa !53
  %100 = call double @llvm.fmuladd.f64(double %98, double %99, double %95)
  %101 = load ptr, ptr %3, align 8, !tbaa !49
  %102 = getelementptr inbounds nuw %"struct.(anonymous namespace)::pj_opaque_helmert", ptr %101, i32 0, i32 7
  store double %100, ptr %102, align 8, !tbaa !76
  %103 = load ptr, ptr %3, align 8, !tbaa !49
  %104 = getelementptr inbounds nuw %"struct.(anonymous namespace)::pj_opaque_helmert", ptr %103, i32 0, i32 11
  %105 = load double, ptr %104, align 8, !tbaa !64
  %106 = load ptr, ptr %3, align 8, !tbaa !49
  %107 = getelementptr inbounds nuw %"struct.(anonymous namespace)::pj_opaque_helmert", ptr %106, i32 0, i32 12
  %108 = load double, ptr %107, align 8, !tbaa !72
  %109 = load double, ptr %4, align 8, !tbaa !53
  %110 = call double @llvm.fmuladd.f64(double %108, double %109, double %105)
  %111 = load ptr, ptr %3, align 8, !tbaa !49
  %112 = getelementptr inbounds nuw %"struct.(anonymous namespace)::pj_opaque_helmert", ptr %111, i32 0, i32 10
  store double %110, ptr %112, align 8, !tbaa !77
  %113 = load ptr, ptr %2, align 8, !tbaa !3
  %114 = getelementptr inbounds nuw %struct.PJconsts, ptr %113, i32 0, i32 0
  %115 = load ptr, ptr %114, align 8, !tbaa !51
  %116 = call i32 @proj_log_level(ptr noundef %115, i32 noundef 4)
  %117 = icmp sge i32 %116, 3
  br i1 %117, label %118, label %165

118:                                              ; preds = %1
  %119 = load ptr, ptr %2, align 8, !tbaa !3
  %120 = load ptr, ptr %3, align 8, !tbaa !49
  %121 = getelementptr inbounds nuw %"struct.(anonymous namespace)::pj_opaque_helmert", ptr %120, i32 0, i32 15
  %122 = load double, ptr %121, align 8, !tbaa !91
  %123 = load ptr, ptr %3, align 8, !tbaa !49
  %124 = getelementptr inbounds nuw %"struct.(anonymous namespace)::pj_opaque_helmert", ptr %123, i32 0, i32 14
  %125 = load double, ptr %124, align 8, !tbaa !74
  call void (ptr, ptr, ...) @_Z14proj_log_traceP8PJconstsPKcz(ptr noundef %119, ptr noundef @.str.66, double noundef %122, double noundef %125)
  %126 = load ptr, ptr %2, align 8, !tbaa !3
  %127 = load ptr, ptr %3, align 8, !tbaa !49
  %128 = getelementptr inbounds nuw %"struct.(anonymous namespace)::pj_opaque_helmert", ptr %127, i32 0, i32 0
  %129 = getelementptr inbounds nuw %struct.PJ_XYZ, ptr %128, i32 0, i32 0
  %130 = load double, ptr %129, align 8, !tbaa !82
  call void (ptr, ptr, ...) @_Z14proj_log_traceP8PJconstsPKcz(ptr noundef %126, ptr noundef @.str.67, double noundef %130)
  %131 = load ptr, ptr %2, align 8, !tbaa !3
  %132 = load ptr, ptr %3, align 8, !tbaa !49
  %133 = getelementptr inbounds nuw %"struct.(anonymous namespace)::pj_opaque_helmert", ptr %132, i32 0, i32 0
  %134 = getelementptr inbounds nuw %struct.PJ_XYZ, ptr %133, i32 0, i32 1
  %135 = load double, ptr %134, align 8, !tbaa !83
  call void (ptr, ptr, ...) @_Z14proj_log_traceP8PJconstsPKcz(ptr noundef %131, ptr noundef @.str.68, double noundef %135)
  %136 = load ptr, ptr %2, align 8, !tbaa !3
  %137 = load ptr, ptr %3, align 8, !tbaa !49
  %138 = getelementptr inbounds nuw %"struct.(anonymous namespace)::pj_opaque_helmert", ptr %137, i32 0, i32 0
  %139 = getelementptr inbounds nuw %struct.PJ_XYZ, ptr %138, i32 0, i32 2
  %140 = load double, ptr %139, align 8, !tbaa !84
  call void (ptr, ptr, ...) @_Z14proj_log_traceP8PJconstsPKcz(ptr noundef %136, ptr noundef @.str.69, double noundef %140)
  %141 = load ptr, ptr %2, align 8, !tbaa !3
  %142 = load ptr, ptr %3, align 8, !tbaa !49
  %143 = getelementptr inbounds nuw %"struct.(anonymous namespace)::pj_opaque_helmert", ptr %142, i32 0, i32 7
  %144 = load double, ptr %143, align 8, !tbaa !76
  %145 = fmul double %144, 0x3EB0C6F7A0B5ED8D
  call void (ptr, ptr, ...) @_Z14proj_log_traceP8PJconstsPKcz(ptr noundef %141, ptr noundef @.str.70, double noundef %145)
  %146 = load ptr, ptr %2, align 8, !tbaa !3
  %147 = load ptr, ptr %3, align 8, !tbaa !49
  %148 = getelementptr inbounds nuw %"struct.(anonymous namespace)::pj_opaque_helmert", ptr %147, i32 0, i32 4
  %149 = getelementptr inbounds nuw %struct.PJ_OPK, ptr %148, i32 0, i32 0
  %150 = load double, ptr %149, align 8, !tbaa !78
  call void (ptr, ptr, ...) @_Z14proj_log_traceP8PJconstsPKcz(ptr noundef %146, ptr noundef @.str.71, double noundef %150)
  %151 = load ptr, ptr %2, align 8, !tbaa !3
  %152 = load ptr, ptr %3, align 8, !tbaa !49
  %153 = getelementptr inbounds nuw %"struct.(anonymous namespace)::pj_opaque_helmert", ptr %152, i32 0, i32 4
  %154 = getelementptr inbounds nuw %struct.PJ_OPK, ptr %153, i32 0, i32 1
  %155 = load double, ptr %154, align 8, !tbaa !79
  call void (ptr, ptr, ...) @_Z14proj_log_traceP8PJconstsPKcz(ptr noundef %151, ptr noundef @.str.72, double noundef %155)
  %156 = load ptr, ptr %2, align 8, !tbaa !3
  %157 = load ptr, ptr %3, align 8, !tbaa !49
  %158 = getelementptr inbounds nuw %"struct.(anonymous namespace)::pj_opaque_helmert", ptr %157, i32 0, i32 4
  %159 = getelementptr inbounds nuw %struct.PJ_OPK, ptr %158, i32 0, i32 2
  %160 = load double, ptr %159, align 8, !tbaa !80
  call void (ptr, ptr, ...) @_Z14proj_log_traceP8PJconstsPKcz(ptr noundef %156, ptr noundef @.str.73, double noundef %160)
  %161 = load ptr, ptr %2, align 8, !tbaa !3
  %162 = load ptr, ptr %3, align 8, !tbaa !49
  %163 = getelementptr inbounds nuw %"struct.(anonymous namespace)::pj_opaque_helmert", ptr %162, i32 0, i32 10
  %164 = load double, ptr %163, align 8, !tbaa !77
  call void (ptr, ptr, ...) @_Z14proj_log_traceP8PJconstsPKcz(ptr noundef %161, ptr noundef @.str.74, double noundef %164)
  br label %165

165:                                              ; preds = %118, %1
  call void @llvm.lifetime.end.p0(i64 8, ptr %4) #10
  call void @llvm.lifetime.end.p0(i64 8, ptr %3) #10
  ret void
}