; Function Attrs: mustprogress uwtable
define internal fastcc void @_ZL17update_parametersP8PJconsts(ptr noundef %0) unnamed_addr #0 {
  %2 = getelementptr inbounds nuw i8, ptr %0, i64 88
  %3 = load ptr, ptr %2, align 8, !tbaa !47
  %4 = getelementptr inbounds nuw i8, ptr %3, i64 296
  %5 = load double, ptr %4, align 8, !tbaa !85
  %6 = getelementptr inbounds nuw i8, ptr %3, i64 288
  %7 = load double, ptr %6, align 8, !tbaa !70
  %8 = fsub double %5, %7
  %9 = getelementptr inbounds nuw i8, ptr %3, i64 24
  %10 = load double, ptr %9, align 8, !tbaa !50
  %11 = getelementptr inbounds nuw i8, ptr %3, i64 48
  %12 = load double, ptr %11, align 8, !tbaa !62
  %13 = tail call double @llvm.fmuladd.f64(double %12, double %8, double %10)
  store double %13, ptr %3, align 8, !tbaa !78
  %14 = getelementptr inbounds nuw i8, ptr %3, i64 32
  %15 = load double, ptr %14, align 8, !tbaa !54
  %16 = getelementptr inbounds nuw i8, ptr %3, i64 56
  %17 = load double, ptr %16, align 8, !tbaa !63
  %18 = tail call double @llvm.fmuladd.f64(double %17, double %8, double %15)
  %19 = getelementptr inbounds nuw i8, ptr %3, i64 8
  store double %18, ptr %19, align 8, !tbaa !79
  %20 = getelementptr inbounds nuw i8, ptr %3, i64 40
  %21 = load double, ptr %20, align 8, !tbaa !55
  %22 = getelementptr inbounds nuw i8, ptr %3, i64 64
  %23 = load double, ptr %22, align 8, !tbaa !64
  %24 = tail call double @llvm.fmuladd.f64(double %23, double %8, double %21)
  %25 = getelementptr inbounds nuw i8, ptr %3, i64 16
  store double %24, ptr %25, align 8, !tbaa !80
  %26 = getelementptr inbounds nuw i8, ptr %3, i64 120
  %27 = load double, ptr %26, align 8, !tbaa !56
  %28 = getelementptr inbounds nuw i8, ptr %3, i64 144
  %29 = load double, ptr %28, align 8, !tbaa !65
  %30 = tail call double @llvm.fmuladd.f64(double %29, double %8, double %27)
  %31 = getelementptr inbounds nuw i8, ptr %3, i64 96
  store double %30, ptr %31, align 8, !tbaa !74
  %32 = getelementptr inbounds nuw i8, ptr %3, i64 128
  %33 = load double, ptr %32, align 8, !tbaa !57
  %34 = getelementptr inbounds nuw i8, ptr %3, i64 152
  %35 = load double, ptr %34, align 8, !tbaa !66
  %36 = tail call double @llvm.fmuladd.f64(double %35, double %8, double %33)
  %37 = getelementptr inbounds nuw i8, ptr %3, i64 104
  store double %36, ptr %37, align 8, !tbaa !75
  %38 = getelementptr inbounds nuw i8, ptr %3, i64 136
  %39 = load double, ptr %38, align 8, !tbaa !58
  %40 = getelementptr inbounds nuw i8, ptr %3, i64 160
  %41 = load double, ptr %40, align 8, !tbaa !67
  %42 = tail call double @llvm.fmuladd.f64(double %41, double %8, double %39)
  %43 = getelementptr inbounds nuw i8, ptr %3, i64 112
  store double %42, ptr %43, align 8, !tbaa !76
  %44 = getelementptr inbounds nuw i8, ptr %3, i64 176
  %45 = load double, ptr %44, align 8, !tbaa !59
  %46 = getelementptr inbounds nuw i8, ptr %3, i64 184
  %47 = load double, ptr %46, align 8, !tbaa !69
  %48 = tail call double @llvm.fmuladd.f64(double %47, double %8, double %45)
  %49 = getelementptr inbounds nuw i8, ptr %3, i64 168
  store double %48, ptr %49, align 8, !tbaa !72
  %50 = getelementptr inbounds nuw i8, ptr %3, i64 200
  %51 = load double, ptr %50, align 8, !tbaa !60
  %52 = getelementptr inbounds nuw i8, ptr %3, i64 208
  %53 = load double, ptr %52, align 8, !tbaa !68
  %54 = tail call double @llvm.fmuladd.f64(double %53, double %8, double %51)
  %55 = getelementptr inbounds nuw i8, ptr %3, i64 192
  store double %54, ptr %55, align 8, !tbaa !73
  %56 = load ptr, ptr %0, align 8, !tbaa !48
  %57 = tail call i32 @proj_log_level(ptr noundef %56, i32 noundef 4)
  %58 = icmp sgt i32 %57, 2
  br i1 %58, label %59, label %71

59:                                               ; preds = %1
  %60 = load double, ptr %4, align 8, !tbaa !85
  %61 = load double, ptr %6, align 8, !tbaa !70
  tail call void (ptr, ptr, ...) @_Z14proj_log_traceP8PJconstsPKcz(ptr noundef nonnull %0, ptr noundef nonnull @.str.66, double noundef %60, double noundef %61)
  %62 = load double, ptr %3, align 8, !tbaa !78
  tail call void (ptr, ptr, ...) @_Z14proj_log_traceP8PJconstsPKcz(ptr noundef nonnull %0, ptr noundef nonnull @.str.67, double noundef %62)
  %63 = load double, ptr %19, align 8, !tbaa !79
  tail call void (ptr, ptr, ...) @_Z14proj_log_traceP8PJconstsPKcz(ptr noundef nonnull %0, ptr noundef nonnull @.str.68, double noundef %63)
  %64 = load double, ptr %25, align 8, !tbaa !80
  tail call void (ptr, ptr, ...) @_Z14proj_log_traceP8PJconstsPKcz(ptr noundef nonnull %0, ptr noundef nonnull @.str.69, double noundef %64)
  %65 = load double, ptr %49, align 8, !tbaa !72
  %66 = fmul double %65, 0x3EB0C6F7A0B5ED8D
  tail call void (ptr, ptr, ...) @_Z14proj_log_traceP8PJconstsPKcz(ptr noundef nonnull %0, ptr noundef nonnull @.str.70, double noundef %66)
  %67 = load double, ptr %31, align 8, !tbaa !74
  tail call void (ptr, ptr, ...) @_Z14proj_log_traceP8PJconstsPKcz(ptr noundef nonnull %0, ptr noundef nonnull @.str.71, double noundef %67)
  %68 = load double, ptr %37, align 8, !tbaa !75
  tail call void (ptr, ptr, ...) @_Z14proj_log_traceP8PJconstsPKcz(ptr noundef nonnull %0, ptr noundef nonnull @.str.72, double noundef %68)
  %69 = load double, ptr %43, align 8, !tbaa !76
  tail call void (ptr, ptr, ...) @_Z14proj_log_traceP8PJconstsPKcz(ptr noundef nonnull %0, ptr noundef nonnull @.str.73, double noundef %69)
  %70 = load double, ptr %55, align 8, !tbaa !73
  tail call void (ptr, ptr, ...) @_Z14proj_log_traceP8PJconstsPKcz(ptr noundef nonnull %0, ptr noundef nonnull @.str.74, double noundef %70)
  br label %71

71:                                               ; preds = %59, %1
  ret void
}